target datalayout = "e-m:e-p270:32:32-p271:32:32-p272:64:64-i64:64-i128:128-f80:128-n8:16:32:64-S128"
target triple = "x86_64-pc-linux-gnu"

%struct.FunctionCallInfoBaseData = type { ptr, ptr, ptr, i32, i8, i16, [0 x %struct.NullableDatum] }
%struct.NullableDatum = type { i64, i8 }
%struct.pg_re_flags = type { i32, i8 }
%struct.regexp_matches_ctx = type { ptr, i32, i32, ptr, i32, ptr, ptr, ptr, ptr, i32 }

@.str.3 = private unnamed_addr constant [9 x i8] c"regexp.c\00", align 1
@.str.9 = private unnamed_addr constant [40 x i8] c"%s does not support the \22global\22 option\00", align 1
@.str.15 = private unnamed_addr constant [15 x i8] c"regexp_match()\00", align 1
@.str.16 = private unnamed_addr constant [41 x i8] c"Use the regexp_matches function instead.\00", align 1
@__func__.regexp_match = private unnamed_addr constant [13 x i8] c"regexp_match\00", align 1

; Function Attrs: inlinehint nounwind uwtable
define internal i64 @PointerGetDatum(ptr noundef %0) #6 {
  %2 = alloca ptr, align 8
  store ptr %0, ptr %2, align 8
  %3 = load ptr, ptr %2, align 8
  %4 = ptrtoint ptr %3 to i64
  ret i64 %4
}

; Function Attrs: inlinehint nounwind uwtable
define internal ptr @DatumGetPointer(i64 noundef %0) #6 {
  %2 = alloca i64, align 8
  store i64 %0, ptr %2, align 8
  %3 = load i64, ptr %2, align 8
  %4 = inttoptr i64 %3 to ptr
  ret ptr %4
}

; Function Attrs: nounwind uwtable
define dso_local i64 @regexp_match(ptr noundef %0) #0 {
  %2 = alloca i64, align 8
  %3 = alloca ptr, align 8
  %4 = alloca ptr, align 8
  %5 = alloca ptr, align 8
  %6 = alloca ptr, align 8
  %7 = alloca %struct.pg_re_flags, align 4
  %8 = alloca ptr, align 8
  %9 = alloca i32, align 4
  store ptr %0, ptr %3, align 8
  call void @llvm.lifetime.start.p0(i64 8, ptr %4) #8
  %10 = load ptr, ptr %3, align 8
  %11 = getelementptr inbounds nuw %struct.FunctionCallInfoBaseData, ptr %10, i32 0, i32 6
  %12 = getelementptr inbounds [0 x %struct.NullableDatum], ptr %11, i64 0, i64 0
  %13 = getelementptr inbounds nuw %struct.NullableDatum, ptr %12, i32 0, i32 0
  %14 = load i64, ptr %13, align 8
  %15 = call ptr @DatumGetPointer(i64 noundef %14)
  %16 = call ptr @pg_detoast_datum_packed(ptr noundef %15)
  store ptr %16, ptr %4, align 8
  call void @llvm.lifetime.start.p0(i64 8, ptr %5) #8
  %17 = load ptr, ptr %3, align 8
  %18 = getelementptr inbounds nuw %struct.FunctionCallInfoBaseData, ptr %17, i32 0, i32 6
  %19 = getelementptr inbounds [0 x %struct.NullableDatum], ptr %18, i64 0, i64 1
  %20 = getelementptr inbounds nuw %struct.NullableDatum, ptr %19, i32 0, i32 0
  %21 = load i64, ptr %20, align 8
  %22 = call ptr @DatumGetPointer(i64 noundef %21)
  %23 = call ptr @pg_detoast_datum_packed(ptr noundef %22)
  store ptr %23, ptr %5, align 8
  call void @llvm.lifetime.start.p0(i64 8, ptr %6) #8
  %24 = load ptr, ptr %3, align 8
  %25 = getelementptr inbounds nuw %struct.FunctionCallInfoBaseData, ptr %24, i32 0, i32 5
  %26 = load i16, ptr %25, align 2
  %27 = sext i16 %26 to i32
  %28 = icmp sgt i32 %27, 2
  br i1 %28, label %29, label %37

29:                                               ; preds = %1
  %30 = load ptr, ptr %3, align 8
  %31 = getelementptr inbounds nuw %struct.FunctionCallInfoBaseData, ptr %30, i32 0, i32 6
  %32 = getelementptr inbounds [0 x %struct.NullableDatum], ptr %31, i64 0, i64 2
  %33 = getelementptr inbounds nuw %struct.NullableDatum, ptr %32, i32 0, i32 0
  %34 = load i64, ptr %33, align 8
  %35 = call ptr @DatumGetPointer(i64 noundef %34)
  %36 = call ptr @pg_detoast_datum_packed(ptr noundef %35)
  br label %38

37:                                               ; preds = %1
  br label %38

38:                                               ; preds = %37, %29
  %39 = phi ptr [ %36, %29 ], [ null, %37 ]
  store ptr %39, ptr %6, align 8
  call void @llvm.lifetime.start.p0(i64 8, ptr %7) #8
  call void @llvm.lifetime.start.p0(i64 8, ptr %8) #8
  %40 = load ptr, ptr %6, align 8
  call void @parse_re_flags(ptr noundef %7, ptr noundef %40)
  %41 = getelementptr inbounds nuw %struct.pg_re_flags, ptr %7, i32 0, i32 1
  %42 = load i8, ptr %41, align 4, !range !6, !noundef !7
  %43 = trunc i8 %42 to i1
  br i1 %43, label %44, label %57

44:                                               ; preds = %38
  br label %45

45:                                               ; preds = %44
  br i1 true, label %46, label %48

46:                                               ; preds = %45
  %47 = call zeroext i1 @errstart_cold(i32 noundef 21, ptr noundef null) #10
  br i1 %47, label %50, label %54

48:                                               ; preds = %45
  %49 = call zeroext i1 @errstart(i32 noundef 21, ptr noundef null)
  br i1 %49, label %50, label %54

50:                                               ; preds = %48, %46
  %51 = call i32 @errcode(i32 noundef 50856066)
  %52 = call i32 (ptr, ...) @errmsg(ptr noundef @.str.9, ptr noundef @.str.15)
  %53 = call i32 (ptr, ...) @errhint(ptr noundef @.str.16)
  call void @errfinish(ptr noundef @.str.3, i32 noundef 1312, ptr noundef @__func__.regexp_match)
  br label %54

54:                                               ; preds = %50, %48, %46
  unreachable

55:                                               ; No predecessors!
  br label %56

56:                                               ; preds = %55
  br label %57

57:                                               ; preds = %56, %38
  %58 = load ptr, ptr %4, align 8
  %59 = load ptr, ptr %5, align 8
  %60 = load ptr, ptr %3, align 8
  %61 = getelementptr inbounds nuw %struct.FunctionCallInfoBaseData, ptr %60, i32 0, i32 3
  %62 = load i32, ptr %61, align 8
  %63 = call ptr @setup_regexp_matches(ptr noundef %58, ptr noundef %59, ptr noundef %7, i32 noundef 0, i32 noundef %62, i1 noundef zeroext true, i1 noundef zeroext false, i1 noundef zeroext false)
  store ptr %63, ptr %8, align 8
  %64 = load ptr, ptr %8, align 8
  %65 = getelementptr inbounds nuw %struct.regexp_matches_ctx, ptr %64, i32 0, i32 1
  %66 = load i32, ptr %65, align 8
  %67 = icmp eq i32 %66, 0
  br i1 %67, label %68, label %74

68:                                               ; preds = %57
  br label %69

69:                                               ; preds = %68
  %70 = load ptr, ptr %3, align 8
  %71 = getelementptr inbounds nuw %struct.FunctionCallInfoBaseData, ptr %70, i32 0, i32 4
  store i8 1, ptr %71, align 4
  store i64 0, ptr %2, align 8
  store i32 1, ptr %9, align 4
  br label %94

72:                                               ; No predecessors!
  br label %73

73:                                               ; preds = %72
  br label %74

74:                                               ; preds = %73, %57
  %75 = load ptr, ptr %8, align 8
  %76 = getelementptr inbounds nuw %struct.regexp_matches_ctx, ptr %75, i32 0, i32 2
  %77 = load i32, ptr %76, align 4
  %78 = sext i32 %77 to i64
  %79 = mul i64 8, %78
  %80 = call ptr @palloc(i64 noundef %79)
  %81 = load ptr, ptr %8, align 8
  %82 = getelementptr inbounds nuw %struct.regexp_matches_ctx, ptr %81, i32 0, i32 5
  store ptr %80, ptr %82, align 8
  %83 = load ptr, ptr %8, align 8
  %84 = getelementptr inbounds nuw %struct.regexp_matches_ctx, ptr %83, i32 0, i32 2
  %85 = load i32, ptr %84, align 4
  %86 = sext i32 %85 to i64
  %87 = mul i64 1, %86
  %88 = call ptr @palloc(i64 noundef %87)
  %89 = load ptr, ptr %8, align 8
  %90 = getelementptr inbounds nuw %struct.regexp_matches_ctx, ptr %89, i32 0, i32 6
  store ptr %88, ptr %90, align 8
  %91 = load ptr, ptr %8, align 8
  %92 = call ptr @build_regexp_match_result(ptr noundef %91)
  %93 = call i64 @PointerGetDatum(ptr noundef %92)
  store i64 %93, ptr %2, align 8
  store i32 1, ptr %9, align 4
  br label %94

94:                                               ; preds = %74, %69
  call void @llvm.lifetime.end.p0(i64 8, ptr %8) #8
  call void @llvm.lifetime.end.p0(i64 8, ptr %7) #8
  call void @llvm.lifetime.end.p0(i64 8, ptr %6) #8
  call void @llvm.lifetime.end.p0(i64 8, ptr %5) #8
  call void @llvm.lifetime.end.p0(i64 8, ptr %4) #8
  %95 = load i64, ptr %2, align 8
  ret i64 %95
}