; Function Attrs: nounwind uwtable
define dso_local i64 @regexp_match(ptr noundef captures(none) %0) local_unnamed_addr #0 {
  %2 = alloca %struct.pg_re_flags, align 4
  %3 = getelementptr inbounds nuw i8, ptr %0, i64 32
  %4 = load i64, ptr %3, align 8
  %5 = inttoptr i64 %4 to ptr
  %6 = tail call ptr @pg_detoast_datum_packed(ptr noundef %5) #9
  %7 = getelementptr inbounds nuw i8, ptr %0, i64 48
  %8 = load i64, ptr %7, align 8
  %9 = inttoptr i64 %8 to ptr
  %10 = tail call ptr @pg_detoast_datum_packed(ptr noundef %9) #9
  %11 = getelementptr inbounds nuw i8, ptr %0, i64 30
  %12 = load i16, ptr %11, align 2
  %13 = icmp sgt i16 %12, 2
  br i1 %13, label %14, label %19

14:                                               ; preds = %1
  %15 = getelementptr inbounds nuw i8, ptr %0, i64 64
  %16 = load i64, ptr %15, align 8
  %17 = inttoptr i64 %16 to ptr
  %18 = tail call ptr @pg_detoast_datum_packed(ptr noundef %17) #9
  br label %19

19:                                               ; preds = %1, %14
  %20 = phi ptr [ %18, %14 ], [ null, %1 ]
  call void @llvm.lifetime.start.p0(i64 8, ptr nonnull %2) #9
  call fastcc void @parse_re_flags(ptr noundef %2, ptr noundef %20)
  %21 = getelementptr inbounds nuw i8, ptr %2, i64 4
  %22 = load i8, ptr %21, align 4, !range !7, !noundef !8
  %23 = trunc nuw i8 %22 to i1
  br i1 %23, label %24, label %29

24:                                               ; preds = %19
  %25 = tail call zeroext i1 @errstart_cold(i32 noundef 21, ptr noundef null) #10
  tail call void @llvm.assume(i1 %25)
  %26 = tail call i32 @errcode(i32 noundef 50856066) #9
  %27 = tail call i32 (ptr, ...) @errmsg(ptr noundef nonnull @.str.9, ptr noundef nonnull @.str.15) #9
  %28 = tail call i32 (ptr, ...) @errhint(ptr noundef nonnull @.str.16) #9
  tail call void @errfinish(ptr noundef nonnull @.str.3, i32 noundef 1312, ptr noundef nonnull @__func__.regexp_match) #9
  unreachable

29:                                               ; preds = %19
  %30 = getelementptr inbounds nuw i8, ptr %0, i64 24
  %31 = load i32, ptr %30, align 8
  %.val = load i32, ptr %2, align 4
  %32 = tail call fastcc ptr @setup_regexp_matches(ptr noundef %6, ptr noundef %10, i32 %.val, i8 %22, i32 noundef 0, i32 noundef %31, i1 noundef zeroext true, i1 noundef zeroext false, i1 noundef zeroext false)
  %33 = getelementptr inbounds nuw i8, ptr %32, i64 8
  %34 = load i32, ptr %33, align 8
  %35 = icmp eq i32 %34, 0
  br i1 %35, label %36, label %38

36:                                               ; preds = %29
  %37 = getelementptr inbounds nuw i8, ptr %0, i64 28
  store i8 1, ptr %37, align 4
  br label %51

38:                                               ; preds = %29
  %39 = getelementptr inbounds nuw i8, ptr %32, i64 12
  %40 = load i32, ptr %39, align 4
  %41 = sext i32 %40 to i64
  %42 = shl nsw i64 %41, 3
  %43 = tail call ptr @palloc(i64 noundef %42) #9
  %44 = getelementptr inbounds nuw i8, ptr %32, i64 32
  store ptr %43, ptr %44, align 8
  %45 = load i32, ptr %39, align 4
  %46 = sext i32 %45 to i64
  %47 = tail call ptr @palloc(i64 noundef %46) #9
  %48 = getelementptr inbounds nuw i8, ptr %32, i64 40
  store ptr %47, ptr %48, align 8
  %49 = tail call fastcc ptr @build_regexp_match_result(ptr noundef nonnull %32)
  %50 = ptrtoint ptr %49 to i64
  br label %51

51:                                               ; preds = %38, %36
  %.0 = phi i64 [ 0, %36 ], [ %50, %38 ]
  call void @llvm.lifetime.end.p0(i64 8, ptr nonnull %2) #9
  ret i64 %.0
}